target datalayout = "e-m:e-p270:32:32-p271:32:32-p272:64:64-i64:64-i128:128-f80:128-n8:16:32:64-S128"
target triple = "x86_64-pc-linux-gnu"

%struct.PHP_SHA384_CTX = type { [8 x i64], [2 x i64], [128 x i8] }

; Function Attrs: nounwind uwtable
define void @PHP_SHA384InitArgs(ptr noundef %0, ptr noundef %1) #1 {
  %3 = alloca ptr, align 8
  %4 = alloca ptr, align 8
  store ptr %0, ptr %3, align 8
  store ptr %1, ptr %4, align 8
  %5 = load ptr, ptr %3, align 8
  %6 = getelementptr inbounds %struct.PHP_SHA384_CTX, ptr %5, i32 0, i32 1
  %7 = getelementptr inbounds [2 x i64], ptr %6, i64 0, i64 1
  store i64 0, ptr %7, align 8
  %8 = load ptr, ptr %3, align 8
  %9 = getelementptr inbounds %struct.PHP_SHA384_CTX, ptr %8, i32 0, i32 1
  %10 = getelementptr inbounds [2 x i64], ptr %9, i64 0, i64 0
  store i64 0, ptr %10, align 8
  %11 = load ptr, ptr %3, align 8
  %12 = getelementptr inbounds %struct.PHP_SHA384_CTX, ptr %11, i32 0, i32 0
  %13 = getelementptr inbounds [8 x i64], ptr %12, i64 0, i64 0
  store i64 -3766243637369397544, ptr %13, align 8
  %14 = load ptr, ptr %3, align 8
  %15 = getelementptr inbounds %struct.PHP_SHA384_CTX, ptr %14, i32 0, i32 0
  %16 = getelementptr inbounds [8 x i64], ptr %15, i64 0, i64 1
  store i64 7105036623409894663, ptr %16, align 8
  %17 = load ptr, ptr %3, align 8
  %18 = getelementptr inbounds %struct.PHP_SHA384_CTX, ptr %17, i32 0, i32 0
  %19 = getelementptr inbounds [8 x i64], ptr %18, i64 0, i64 2
  store i64 -7973340178411365097, ptr %19, align 8
  %20 = load ptr, ptr %3, align 8
  %21 = getelementptr inbounds %struct.PHP_SHA384_CTX, ptr %20, i32 0, i32 0
  %22 = getelementptr inbounds [8 x i64], ptr %21, i64 0, i64 3
  store i64 1526699215303891257, ptr %22, align 8
  %23 = load ptr, ptr %3, align 8
  %24 = getelementptr inbounds %struct.PHP_SHA384_CTX, ptr %23, i32 0, i32 0
  %25 = getelementptr inbounds [8 x i64], ptr %24, i64 0, i64 4
  store i64 7436329637833083697, ptr %25, align 8
  %26 = load ptr, ptr %3, align 8
  %27 = getelementptr inbounds %struct.PHP_SHA384_CTX, ptr %26, i32 0, i32 0
  %28 = getelementptr inbounds [8 x i64], ptr %27, i64 0, i64 5
  store i64 -8163818279084223215, ptr %28, align 8
  %29 = load ptr, ptr %3, align 8
  %30 = getelementptr inbounds %struct.PHP_SHA384_CTX, ptr %29, i32 0, i32 0
  %31 = getelementptr inbounds [8 x i64], ptr %30, i64 0, i64 6
  store i64 -2662702644619276377, ptr %31, align 8
  %32 = load ptr, ptr %3, align 8
  %33 = getelementptr inbounds %struct.PHP_SHA384_CTX, ptr %32, i32 0, i32 0
  %34 = getelementptr inbounds [8 x i64], ptr %33, i64 0, i64 7
  store i64 5167115440072839076, ptr %34, align 8
  ret void
}