; Function Attrs: mustprogress nofree norecurse nosync nounwind willreturn memory(argmem: write) uwtable
define void @PHP_SHA384InitArgs(ptr nocapture noundef writeonly %0, ptr nocapture readnone %1) #1 {
  %3 = getelementptr inbounds i8, ptr %0, i64 64
  tail call void @llvm.memset.p0.i64(ptr noundef nonnull align 8 dereferenceable(16) %3, i8 0, i64 16, i1 false)
  store i64 -3766243637369397544, ptr %0, align 8
  %4 = getelementptr inbounds i8, ptr %0, i64 8
  store i64 7105036623409894663, ptr %4, align 8
  %5 = getelementptr inbounds i8, ptr %0, i64 16
  store i64 -7973340178411365097, ptr %5, align 8
  %6 = getelementptr inbounds i8, ptr %0, i64 24
  store i64 1526699215303891257, ptr %6, align 8
  %7 = getelementptr inbounds i8, ptr %0, i64 32
  store i64 7436329637833083697, ptr %7, align 8
  %8 = getelementptr inbounds i8, ptr %0, i64 40
  store i64 -8163818279084223215, ptr %8, align 8
  %9 = getelementptr inbounds i8, ptr %0, i64 48
  store i64 -2662702644619276377, ptr %9, align 8
  %10 = getelementptr inbounds i8, ptr %0, i64 56
  store i64 5167115440072839076, ptr %10, align 8
  ret void
}